target datalayout = "e-m:e-p270:32:32-p271:32:32-p272:64:64-i64:64-i128:128-f80:128-n8:16:32:64-S128"
target triple = "x86_64-pc-linux-gnu"

; Function Attrs: nounwind uwtable
define dso_local ptr @replspace(ptr noundef %0) #0 {
  %2 = alloca ptr, align 8
  %3 = alloca i32, align 4
  store ptr %0, ptr %2, align 8
  call void @llvm.lifetime.start.p0(i64 4, ptr %3) #11
  store i32 0, ptr %3, align 4
  br label %4

4:                                                ; preds = %24, %1
  %5 = load ptr, ptr %2, align 8
  %6 = load i32, ptr %3, align 4
  %7 = sext i32 %6 to i64
  %8 = getelementptr inbounds i8, ptr %5, i64 %7
  %9 = load i8, ptr %8, align 1
  %10 = icmp ne i8 %9, 0
  br i1 %10, label %11, label %27

11:                                               ; preds = %4
  %12 = load ptr, ptr %2, align 8
  %13 = load i32, ptr %3, align 4
  %14 = sext i32 %13 to i64
  %15 = getelementptr inbounds i8, ptr %12, i64 %14
  %16 = load i8, ptr %15, align 1
  %17 = sext i8 %16 to i32
  %18 = icmp eq i32 %17, 32
  br i1 %18, label %19, label %24

19:                                               ; preds = %11
  %20 = load ptr, ptr %2, align 8
  %21 = load i32, ptr %3, align 4
  %22 = sext i32 %21 to i64
  %23 = getelementptr inbounds i8, ptr %20, i64 %22
  store i8 95, ptr %23, align 1
  br label %24

24:                                               ; preds = %19, %11
  %25 = load i32, ptr %3, align 4
  %26 = add nsw i32 %25, 1
  store i32 %26, ptr %3, align 4
  br label %4, !llvm.loop !8

27:                                               ; preds = %4
  %28 = load ptr, ptr %2, align 8
  call void @llvm.lifetime.end.p0(i64 4, ptr %3) #11
  ret ptr %28
}